target datalayout = "e-m:e-p270:32:32-p271:32:32-p272:64:64-i64:64-i128:128-f80:128-n8:16:32:64-S128"
target triple = "x86_64-pc-linux-gnu"

; Function Attrs: nounwind uwtable
define ptr @BIO_s_dgram_pair() #0 {
  ret ptr @dgram_pair_method
}

; Function Attrs: nounwind uwtable
define i32 @BIO_new_bio_dgram_pair(ptr noundef %0, i64 noundef %1, ptr noundef %2, i64 noundef %3) #0 {
  %5 = alloca ptr, align 8
  %6 = alloca i64, align 8
  %7 = alloca ptr, align 8
  %8 = alloca i64, align 8
  %9 = alloca i32, align 4
  %10 = alloca i64, align 8
  %11 = alloca ptr, align 8
  %12 = alloca ptr, align 8
  store ptr %0, ptr %5, align 8, !tbaa !3
  store i64 %1, ptr %6, align 8, !tbaa !8
  store ptr %2, ptr %7, align 8, !tbaa !3
  store i64 %3, ptr %8, align 8, !tbaa !8
  call void @llvm.lifetime.start.p0(i64 4, ptr %9) #8
  store i32 0, ptr %9, align 4, !tbaa !10
  call void @llvm.lifetime.start.p0(i64 8, ptr %10) #8
  call void @llvm.lifetime.start.p0(i64 8, ptr %11) #8
  store ptr null, ptr %11, align 8, !tbaa !12
  call void @llvm.lifetime.start.p0(i64 8, ptr %12) #8
  store ptr null, ptr %12, align 8, !tbaa !12
  %13 = call ptr @BIO_s_dgram_pair()
  %14 = call ptr @BIO_new(ptr noundef %13)
  store ptr %14, ptr %11, align 8, !tbaa !12
  %15 = load ptr, ptr %11, align 8, !tbaa !12
  %16 = icmp eq ptr %15, null
  br i1 %16, label %17, label %18

17:                                               ; preds = %4
  br label %60

18:                                               ; preds = %4
  %19 = call ptr @BIO_s_dgram_pair()
  %20 = call ptr @BIO_new(ptr noundef %19)
  store ptr %20, ptr %12, align 8, !tbaa !12
  %21 = load ptr, ptr %12, align 8, !tbaa !12
  %22 = icmp eq ptr %21, null
  br i1 %22, label %23, label %24

23:                                               ; preds = %18
  br label %60

24:                                               ; preds = %18
  %25 = load i64, ptr %6, align 8, !tbaa !8
  %26 = icmp ugt i64 %25, 0
  br i1 %26, label %27, label %37

27:                                               ; preds = %24
  %28 = load ptr, ptr %11, align 8, !tbaa !12
  %29 = load i64, ptr %6, align 8, !tbaa !8
  %30 = call i64 @BIO_ctrl(ptr noundef %28, i32 noundef 136, i64 noundef %29, ptr noundef null)
  %31 = trunc i64 %30 to i32
  %32 = sext i32 %31 to i64
  store i64 %32, ptr %10, align 8, !tbaa !8
  %33 = load i64, ptr %10, align 8, !tbaa !8
  %34 = icmp eq i64 %33, 0
  br i1 %34, label %35, label %36

35:                                               ; preds = %27
  br label %60

36:                                               ; preds = %27
  br label %37

37:                                               ; preds = %36, %24
  %38 = load i64, ptr %8, align 8, !tbaa !8
  %39 = icmp ugt i64 %38, 0
  br i1 %39, label %40, label %50

40:                                               ; preds = %37
  %41 = load ptr, ptr %12, align 8, !tbaa !12
  %42 = load i64, ptr %8, align 8, !tbaa !8
  %43 = call i64 @BIO_ctrl(ptr noundef %41, i32 noundef 136, i64 noundef %42, ptr noundef null)
  %44 = trunc i64 %43 to i32
  %45 = sext i32 %44 to i64
  store i64 %45, ptr %10, align 8, !tbaa !8
  %46 = load i64, ptr %10, align 8, !tbaa !8
  %47 = icmp eq i64 %46, 0
  br i1 %47, label %48, label %49

48:                                               ; preds = %40
  br label %60

49:                                               ; preds = %40
  br label %50

50:                                               ; preds = %49, %37
  %51 = load ptr, ptr %11, align 8, !tbaa !12
  %52 = load ptr, ptr %12, align 8, !tbaa !12
  %53 = call i64 @BIO_ctrl(ptr noundef %51, i32 noundef 138, i64 noundef 0, ptr noundef %52)
  %54 = trunc i64 %53 to i32
  %55 = sext i32 %54 to i64
  store i64 %55, ptr %10, align 8, !tbaa !8
  %56 = load i64, ptr %10, align 8, !tbaa !8
  %57 = icmp eq i64 %56, 0
  br i1 %57, label %58, label %59

58:                                               ; preds = %50
  br label %60

59:                                               ; preds = %50
  store i32 1, ptr %9, align 4, !tbaa !10
  br label %60

60:                                               ; preds = %59, %58, %48, %35, %23, %17
  %61 = load i32, ptr %9, align 4, !tbaa !10
  %62 = icmp eq i32 %61, 0
  br i1 %62, label %63, label %68

63:                                               ; preds = %60
  %64 = load ptr, ptr %11, align 8, !tbaa !12
  %65 = call i32 @BIO_free(ptr noundef %64)
  store ptr null, ptr %11, align 8, !tbaa !12
  %66 = load ptr, ptr %12, align 8, !tbaa !12
  %67 = call i32 @BIO_free(ptr noundef %66)
  store ptr null, ptr %12, align 8, !tbaa !12
  br label %68

68:                                               ; preds = %63, %60
  %69 = load ptr, ptr %11, align 8, !tbaa !12
  %70 = load ptr, ptr %5, align 8, !tbaa !3
  store ptr %69, ptr %70, align 8, !tbaa !12
  %71 = load ptr, ptr %12, align 8, !tbaa !12
  %72 = load ptr, ptr %7, align 8, !tbaa !3
  store ptr %71, ptr %72, align 8, !tbaa !12
  %73 = load i32, ptr %9, align 4, !tbaa !10
  call void @llvm.lifetime.end.p0(i64 8, ptr %12) #8
  call void @llvm.lifetime.end.p0(i64 8, ptr %11) #8
  call void @llvm.lifetime.end.p0(i64 8, ptr %10) #8
  call void @llvm.lifetime.end.p0(i64 4, ptr %9) #8
  ret i32 %73
}