; Function Attrs: nounwind uwtable
define range(i32 0, 2) i32 @BIO_new_bio_dgram_pair(ptr noundef writeonly captures(none) initializes((0, 8)) %0, i64 noundef %1, ptr noundef writeonly captures(none) initializes((0, 8)) %2, i64 noundef %3) local_unnamed_addr #1 {
  %5 = tail call ptr @BIO_new(ptr noundef nonnull @dgram_pair_method) #7
  %6 = icmp eq ptr %5, null
  br i1 %6, label %.thread, label %7

7:                                                ; preds = %4
  %8 = tail call ptr @BIO_new(ptr noundef nonnull @dgram_pair_method) #7
  %9 = icmp eq ptr %8, null
  br i1 %9, label %.thread, label %10

10:                                               ; preds = %7
  %.not = icmp eq i64 %1, 0
  br i1 %.not, label %14, label %11

11:                                               ; preds = %10
  %12 = tail call i64 @BIO_ctrl(ptr noundef nonnull %5, i32 noundef 136, i64 noundef %1, ptr noundef null) #7
  %sext.mask = and i64 %12, 4294967295
  %13 = icmp eq i64 %sext.mask, 0
  br i1 %13, label %.thread, label %14

14:                                               ; preds = %11, %10
  %.not27 = icmp eq i64 %3, 0
  br i1 %.not27, label %18, label %15

15:                                               ; preds = %14
  %16 = tail call i64 @BIO_ctrl(ptr noundef nonnull %8, i32 noundef 136, i64 noundef %3, ptr noundef null) #7
  %sext.mask28 = and i64 %16, 4294967295
  %17 = icmp eq i64 %sext.mask28, 0
  br i1 %17, label %.thread, label %18

18:                                               ; preds = %14, %15
  %19 = tail call i64 @BIO_ctrl(ptr noundef nonnull %5, i32 noundef 138, i64 noundef 0, ptr noundef nonnull %8) #7
  %sext.mask29 = and i64 %19, 4294967295
  %20 = icmp eq i64 %sext.mask29, 0
  br i1 %20, label %.thread, label %23

.thread:                                          ; preds = %15, %11, %7, %4, %18
  %.035 = phi ptr [ %8, %18 ], [ %8, %15 ], [ %8, %11 ], [ null, %7 ], [ null, %4 ]
  %21 = tail call i32 @BIO_free(ptr noundef %5) #7
  %22 = tail call i32 @BIO_free(ptr noundef %.035) #7
  br label %23

23:                                               ; preds = %.thread, %18
  %.02133 = phi i32 [ 0, %.thread ], [ 1, %18 ]
  %.020 = phi ptr [ null, %.thread ], [ %5, %18 ]
  %.1 = phi ptr [ null, %.thread ], [ %8, %18 ]
  store ptr %.020, ptr %0, align 8, !tbaa !3
  store ptr %.1, ptr %2, align 8, !tbaa !3
  ret i32 %.02133
}